target datalayout = "e-m:e-p270:32:32-p271:32:32-p272:64:64-i64:64-i128:128-f80:128-n8:16:32:64-S128"
target triple = "x86_64-pc-linux-gnu"

%struct.hb_atomic_int_t = type { i32 }
%struct.hb_segment_properties_t = type { i32, i32, ptr, ptr, ptr }
%struct.hb_buffer_t = type <{ %struct.hb_object_header_t, ptr, i32, i32, i32, i32, i32, i32, %struct.hb_segment_properties_t, i8, i8, i8, i8, i32, i32, i32, i32, [4 x i8], ptr, ptr, ptr, [2 x [5 x i32]], [2 x i32], i8, i8, [2 x i8], i32, i32, i32, ptr, ptr, ptr, i32, [4 x i8] }>
%struct.hb_object_header_t = type { %struct.hb_reference_count_t, %struct.hb_atomic_int_t, %struct.hb_atomic_ptr_t }
%struct.hb_reference_count_t = type { %struct.hb_atomic_int_t }
%struct.hb_atomic_ptr_t = type { ptr }
%struct.hb_glyph_info_t = type { i32, i32, i32, %union._hb_var_int_t, %union._hb_var_int_t }
%union._hb_var_int_t = type { i32 }

; Function Attrs: mustprogress uwtable
define internal void @_ZL20set_indic_propertiesR15hb_glyph_info_t(ptr noundef nonnull align 4 dereferenceable(20) %0) #0 {
  %2 = alloca ptr, align 8
  %3 = alloca i32, align 4
  %4 = alloca i32, align 4
  store ptr %0, ptr %2, align 8
  %5 = load ptr, ptr %2, align 8
  %6 = getelementptr inbounds %struct.hb_glyph_info_t, ptr %5, i32 0, i32 0
  %7 = load i32, ptr %6, align 4
  store i32 %7, ptr %3, align 4
  %8 = load i32, ptr %3, align 4
  %9 = call noundef zeroext i16 @_Z23hb_indic_get_categoriesj(i32 noundef %8)
  %10 = zext i16 %9 to i32
  store i32 %10, ptr %4, align 4
  %11 = load i32, ptr %4, align 4
  %12 = and i32 %11, 255
  %13 = trunc i32 %12 to i8
  %14 = load ptr, ptr %2, align 8
  %15 = getelementptr inbounds %struct.hb_glyph_info_t, ptr %14, i32 0, i32 4
  %16 = getelementptr inbounds [4 x i8], ptr %15, i64 0, i64 2
  store i8 %13, ptr %16, align 2
  %17 = load i32, ptr %4, align 4
  %18 = lshr i32 %17, 8
  %19 = trunc i32 %18 to i8
  %20 = load ptr, ptr %2, align 8
  %21 = getelementptr inbounds %struct.hb_glyph_info_t, ptr %20, i32 0, i32 4
  %22 = getelementptr inbounds [4 x i8], ptr %21, i64 0, i64 3
  store i8 %19, ptr %22, align 1
  ret void
}

; Function Attrs: mustprogress nounwind uwtable
define linkonce_odr hidden void @_ZN11hb_buffer_t12allocate_varEjj(ptr noundef nonnull align 8 dereferenceable(220) %0, i32 noundef %1, i32 noundef %2) #1 comdat align 2 {
  %4 = alloca ptr, align 8
  %5 = alloca i32, align 4
  %6 = alloca i32, align 4
  %7 = alloca i32, align 4
  %8 = alloca i32, align 4
  store ptr %0, ptr %4, align 8
  store i32 %1, ptr %5, align 4
  store i32 %2, ptr %6, align 4
  %9 = load ptr, ptr %4, align 8
  %10 = load i32, ptr %5, align 4
  %11 = load i32, ptr %6, align 4
  %12 = add i32 %10, %11
  store i32 %12, ptr %7, align 4
  %13 = load i32, ptr %7, align 4
  %14 = shl i32 1, %13
  %15 = load i32, ptr %5, align 4
  %16 = shl i32 1, %15
  %17 = sub i32 %14, %16
  store i32 %17, ptr %8, align 4
  %18 = load i32, ptr %8, align 4
  %19 = getelementptr inbounds %struct.hb_buffer_t, ptr %9, i32 0, i32 23
  %20 = load i8, ptr %19, align 8
  %21 = zext i8 %20 to i32
  %22 = or i32 %21, %18
  %23 = trunc i32 %22 to i8
  store i8 %23, ptr %19, align 8
  ret void
}

; Function Attrs: mustprogress uwtable
define internal void @_ZL17setup_masks_indicPK18hb_ot_shape_plan_tP11hb_buffer_tP9hb_font_t(ptr noundef %0, ptr noundef %1, ptr noundef %2) #0 {
  %4 = alloca ptr, align 8
  %5 = alloca ptr, align 8
  %6 = alloca ptr, align 8
  %7 = alloca i32, align 4
  %8 = alloca ptr, align 8
  %9 = alloca i32, align 4
  store ptr %0, ptr %4, align 8
  store ptr %1, ptr %5, align 8
  store ptr %2, ptr %6, align 8
  %10 = load ptr, ptr %5, align 8
  call void @_ZN11hb_buffer_t12allocate_varEjj(ptr noundef nonnull align 8 dereferenceable(220) %10, i32 noundef 6, i32 noundef 1)
  %11 = load ptr, ptr %5, align 8
  call void @_ZN11hb_buffer_t12allocate_varEjj(ptr noundef nonnull align 8 dereferenceable(220) %11, i32 noundef 7, i32 noundef 1)
  %12 = load ptr, ptr %5, align 8
  %13 = getelementptr inbounds %struct.hb_buffer_t, ptr %12, i32 0, i32 14
  %14 = load i32, ptr %13, align 8
  store i32 %14, ptr %7, align 4
  %15 = load ptr, ptr %5, align 8
  %16 = getelementptr inbounds %struct.hb_buffer_t, ptr %15, i32 0, i32 18
  %17 = load ptr, ptr %16, align 8
  store ptr %17, ptr %8, align 8
  store i32 0, ptr %9, align 4
  br label %18

18:                                               ; preds = %27, %3
  %19 = load i32, ptr %9, align 4
  %20 = load i32, ptr %7, align 4
  %21 = icmp ult i32 %19, %20
  br i1 %21, label %22, label %30

22:                                               ; preds = %18
  %23 = load ptr, ptr %8, align 8
  %24 = load i32, ptr %9, align 4
  %25 = zext i32 %24 to i64
  %26 = getelementptr inbounds %struct.hb_glyph_info_t, ptr %23, i64 %25
  call void @_ZL20set_indic_propertiesR15hb_glyph_info_t(ptr noundef nonnull align 4 dereferenceable(20) %26)
  br label %27

27:                                               ; preds = %22
  %28 = load i32, ptr %9, align 4
  %29 = add i32 %28, 1
  store i32 %29, ptr %9, align 4
  br label %18, !llvm.loop !11

30:                                               ; preds = %18
  ret void
}