; Function Attrs: mustprogress uwtable
define internal void @_ZL17setup_masks_indicPK18hb_ot_shape_plan_tP11hb_buffer_tP9hb_font_t(ptr nocapture readnone %0, ptr nocapture noundef %1, ptr nocapture readnone %2) #0 {
  %4 = getelementptr inbounds i8, ptr %1, i64 176
  %5 = load i8, ptr %4, align 8
  %6 = or i8 %5, -64
  store i8 %6, ptr %4, align 8
  %7 = getelementptr inbounds i8, ptr %1, i64 88
  %8 = load i32, ptr %7, align 8
  %9 = getelementptr inbounds i8, ptr %1, i64 104
  %10 = load ptr, ptr %9, align 8
  %.not = icmp eq i32 %8, 0
  br i1 %.not, label %._crit_edge, label %.lr.ph.preheader

.lr.ph.preheader:                                 ; preds = %3
  %wide.trip.count = zext i32 %8 to i64
  br label %.lr.ph

.lr.ph:                                           ; preds = %.lr.ph.preheader, %.lr.ph
  %indvars.iv = phi i64 [ 0, %.lr.ph.preheader ], [ %indvars.iv.next, %.lr.ph ]
  %11 = getelementptr inbounds %struct.hb_glyph_info_t, ptr %10, i64 %indvars.iv
  %12 = load i32, ptr %11, align 4
  %13 = tail call noundef zeroext i16 @_Z23hb_indic_get_categoriesj(i32 noundef %12)
  %14 = trunc i16 %13 to i8
  %15 = getelementptr inbounds i8, ptr %11, i64 18
  store i8 %14, ptr %15, align 2
  %16 = lshr i16 %13, 8
  %17 = trunc nuw i16 %16 to i8
  %18 = getelementptr inbounds i8, ptr %11, i64 19
  store i8 %17, ptr %18, align 1
  %indvars.iv.next = add nuw nsw i64 %indvars.iv, 1
  %exitcond.not = icmp eq i64 %indvars.iv.next, %wide.trip.count
  br i1 %exitcond.not, label %._crit_edge, label %.lr.ph, !llvm.loop !12

._crit_edge:                                      ; preds = %.lr.ph, %3
  ret void
}